; Function Attrs: mustprogress nounwind uwtable
define hidden noundef zeroext i1 @_ZN10MemTracker23print_containing_regionEPKvP12outputStream(ptr noundef %0, ptr noundef %1) local_unnamed_addr #0 align 2 {
  %3 = load i32, ptr @_ZN10MemTracker15_tracking_levelE, align 4
  %4 = icmp sgt i32 %3, 1
  br i1 %4, label %5, label %9

5:                                                ; preds = %2
  %6 = tail call noundef zeroext i1 @_ZN13MallocTracker25print_pointer_informationEPKvP12outputStream(ptr noundef %0, ptr noundef %1) #11
  br i1 %6, label %9, label %7

7:                                                ; preds = %5
  %8 = tail call noundef zeroext i1 @_ZN20VirtualMemoryTracker23print_containing_regionEPKvP12outputStream(ptr noundef %0, ptr noundef %1) #11
  br label %9

9:                                                ; preds = %5, %7, %2
  %10 = phi i1 [ false, %2 ], [ true, %5 ], [ %8, %7 ]
  ret i1 %10
}